target datalayout = "e-m:e-p270:32:32-p271:32:32-p272:64:64-i64:64-i128:128-f80:128-n8:16:32:64-S128"
target triple = "x86_64-pc-linux-gnu"

%struct.UDataMemory = type { ptr, ptr, ptr, i8, ptr, ptr, i32 }

; Function Attrs: inlinehint mustprogress nounwind uwtable
define internal noundef signext i8 @_ZL9U_FAILURE10UErrorCode(i32 noundef %0) #2 {
  %2 = alloca i32, align 4
  store i32 %0, ptr %2, align 4, !tbaa !15
  %3 = load i32, ptr %2, align 4, !tbaa !15
  %4 = icmp sgt i32 %3, 0
  %5 = zext i1 %4 to i8
  ret i8 %5
}

; Function Attrs: mustprogress uwtable
define void @udata_setAppData_77(ptr noundef %0, ptr noundef %1, ptr noundef %2) #1 {
  %4 = alloca ptr, align 8
  %5 = alloca ptr, align 8
  %6 = alloca ptr, align 8
  %7 = alloca %struct.UDataMemory, align 8
  %8 = alloca i32, align 4
  store ptr %0, ptr %4, align 8, !tbaa !17
  store ptr %1, ptr %5, align 8, !tbaa !22
  store ptr %2, ptr %6, align 8, !tbaa !22
  call void @llvm.lifetime.start.p0(i64 56, ptr %7) #12
  %9 = load ptr, ptr %6, align 8, !tbaa !22
  %10 = icmp eq ptr %9, null
  br i1 %10, label %16, label %11

11:                                               ; preds = %3
  %12 = load ptr, ptr %6, align 8, !tbaa !22
  %13 = load i32, ptr %12, align 4, !tbaa !15
  %14 = call noundef signext i8 @_ZL9U_FAILURE10UErrorCode(i32 noundef %13)
  %15 = icmp ne i8 %14, 0
  br i1 %15, label %16, label %17

16:                                               ; preds = %11, %3
  store i32 1, ptr %8, align 4
  br label %28

17:                                               ; preds = %11
  %18 = load ptr, ptr %5, align 8, !tbaa !22
  %19 = icmp eq ptr %18, null
  br i1 %19, label %20, label %22

20:                                               ; preds = %17
  %21 = load ptr, ptr %6, align 8, !tbaa !22
  store i32 1, ptr %21, align 4, !tbaa !15
  store i32 1, ptr %8, align 4
  br label %28

22:                                               ; preds = %17
  call void @UDataMemory_init_77(ptr noundef %7)
  %23 = load ptr, ptr %5, align 8, !tbaa !22
  call void @UDataMemory_setData_77(ptr noundef %7, ptr noundef %23)
  %24 = load ptr, ptr %6, align 8, !tbaa !22
  call void @udata_checkCommonData_77(ptr noundef %7, ptr noundef %24)
  %25 = load ptr, ptr %4, align 8, !tbaa !17
  %26 = load ptr, ptr %6, align 8, !tbaa !22
  %27 = call noundef ptr @_ZL19udata_cacheDataItemPKcP11UDataMemoryP10UErrorCode(ptr noundef %25, ptr noundef %7, ptr noundef %26)
  store i32 0, ptr %8, align 4
  br label %28

28:                                               ; preds = %22, %20, %16
  call void @llvm.lifetime.end.p0(i64 56, ptr %7) #12
  %29 = load i32, ptr %8, align 4
  switch i32 %29, label %31 [
    i32 0, label %30
    i32 1, label %30
  ]

30:                                               ; preds = %28, %28
  ret void

31:                                               ; preds = %28
  unreachable
}