; Function Attrs: mustprogress uwtable
define void @udata_setAppData_77(ptr noundef %0, ptr noundef %1, ptr noundef %2) local_unnamed_addr #1 {
  %4 = alloca %struct.UDataMemory, align 8
  call void @llvm.lifetime.start.p0(i64 56, ptr nonnull %4) #15
  %5 = icmp eq ptr %2, null
  br i1 %5, label %14, label %6

6:                                                ; preds = %3
  %7 = load i32, ptr %2, align 4, !tbaa !13
  %8 = icmp slt i32 %7, 1
  br i1 %8, label %9, label %14

9:                                                ; preds = %6
  %10 = icmp eq ptr %1, null
  br i1 %10, label %11, label %12

11:                                               ; preds = %9
  store i32 1, ptr %2, align 4, !tbaa !13
  br label %14

12:                                               ; preds = %9
  call void @UDataMemory_init_77(ptr noundef nonnull %4)
  call void @UDataMemory_setData_77(ptr noundef nonnull %4, ptr noundef nonnull %1)
  call void @udata_checkCommonData_77(ptr noundef nonnull %4, ptr noundef nonnull %2)
  %13 = call fastcc noundef ptr @_ZL19udata_cacheDataItemPKcP11UDataMemoryP10UErrorCode(ptr noundef %0, ptr noundef %4, ptr noundef %2)
  br label %14

14:                                               ; preds = %3, %6, %12, %11
  call void @llvm.lifetime.end.p0(i64 56, ptr nonnull %4) #15
  ret void
}